target datalayout = "e-m:e-p270:32:32-p271:32:32-p272:64:64-i64:64-i128:128-f80:128-n8:16:32:64-S128"
target triple = "x86_64-pc-linux-gnu"

%struct.PQExpBufferData = type { ptr, i64, i64 }

; Function Attrs: nounwind uwtable
define dso_local void @appendStringLiteralConn(ptr noundef %0, ptr noundef %1, ptr noundef %2) #0 {
  %4 = alloca ptr, align 8
  %5 = alloca ptr, align 8
  %6 = alloca ptr, align 8
  %7 = alloca i64, align 8
  %8 = alloca i32, align 4
  store ptr %0, ptr %4, align 8
  store ptr %1, ptr %5, align 8
  store ptr %2, ptr %6, align 8
  call void @llvm.lifetime.start.p0(i64 8, ptr %7) #8
  %9 = load ptr, ptr %5, align 8
  %10 = call i64 @strlen(ptr noundef %9) #9
  store i64 %10, ptr %7, align 8
  %11 = load ptr, ptr %5, align 8
  %12 = call ptr @strchr(ptr noundef %11, i32 noundef 92) #9
  %13 = icmp ne ptr %12, null
  br i1 %13, label %14, label %43

14:                                               ; preds = %3
  %15 = load ptr, ptr %6, align 8
  %16 = call i32 @PQserverVersion(ptr noundef %15)
  %17 = icmp sge i32 %16, 80100
  br i1 %17, label %18, label %43

18:                                               ; preds = %14
  %19 = load ptr, ptr %4, align 8
  %20 = getelementptr inbounds nuw %struct.PQExpBufferData, ptr %19, i32 0, i32 1
  %21 = load i64, ptr %20, align 8
  %22 = icmp ugt i64 %21, 0
  br i1 %22, label %23, label %37

23:                                               ; preds = %18
  %24 = load ptr, ptr %4, align 8
  %25 = getelementptr inbounds nuw %struct.PQExpBufferData, ptr %24, i32 0, i32 0
  %26 = load ptr, ptr %25, align 8
  %27 = load ptr, ptr %4, align 8
  %28 = getelementptr inbounds nuw %struct.PQExpBufferData, ptr %27, i32 0, i32 1
  %29 = load i64, ptr %28, align 8
  %30 = sub i64 %29, 1
  %31 = getelementptr inbounds nuw i8, ptr %26, i64 %30
  %32 = load i8, ptr %31, align 1
  %33 = sext i8 %32 to i32
  %34 = icmp ne i32 %33, 32
  br i1 %34, label %35, label %37

35:                                               ; preds = %23
  %36 = load ptr, ptr %4, align 8
  call void @appendPQExpBufferChar(ptr noundef %36, i8 noundef signext 32)
  br label %37

37:                                               ; preds = %35, %23, %18
  %38 = load ptr, ptr %4, align 8
  call void @appendPQExpBufferChar(ptr noundef %38, i8 noundef signext 69)
  %39 = load ptr, ptr %4, align 8
  %40 = load ptr, ptr %5, align 8
  %41 = load ptr, ptr %6, align 8
  %42 = call i32 @PQclientEncoding(ptr noundef %41)
  call void @appendStringLiteral(ptr noundef %39, ptr noundef %40, i32 noundef %42, i1 noundef zeroext false)
  store i32 1, ptr %8, align 4
  br label %69

43:                                               ; preds = %14, %3
  %44 = load ptr, ptr %4, align 8
  %45 = load i64, ptr %7, align 8
  %46 = mul i64 2, %45
  %47 = add i64 %46, 2
  %48 = call i32 @enlargePQExpBuffer(ptr noundef %44, i64 noundef %47)
  %49 = icmp ne i32 %48, 0
  br i1 %49, label %51, label %50

50:                                               ; preds = %43
  store i32 1, ptr %8, align 4
  br label %69

51:                                               ; preds = %43
  %52 = load ptr, ptr %4, align 8
  call void @appendPQExpBufferChar(ptr noundef %52, i8 noundef signext 39)
  %53 = load ptr, ptr %6, align 8
  %54 = load ptr, ptr %4, align 8
  %55 = getelementptr inbounds nuw %struct.PQExpBufferData, ptr %54, i32 0, i32 0
  %56 = load ptr, ptr %55, align 8
  %57 = load ptr, ptr %4, align 8
  %58 = getelementptr inbounds nuw %struct.PQExpBufferData, ptr %57, i32 0, i32 1
  %59 = load i64, ptr %58, align 8
  %60 = getelementptr inbounds nuw i8, ptr %56, i64 %59
  %61 = load ptr, ptr %5, align 8
  %62 = load i64, ptr %7, align 8
  %63 = call i64 @PQescapeStringConn(ptr noundef %53, ptr noundef %60, ptr noundef %61, i64 noundef %62, ptr noundef null)
  %64 = load ptr, ptr %4, align 8
  %65 = getelementptr inbounds nuw %struct.PQExpBufferData, ptr %64, i32 0, i32 1
  %66 = load i64, ptr %65, align 8
  %67 = add i64 %66, %63
  store i64 %67, ptr %65, align 8
  %68 = load ptr, ptr %4, align 8
  call void @appendPQExpBufferChar(ptr noundef %68, i8 noundef signext 39)
  store i32 0, ptr %8, align 4
  br label %69

69:                                               ; preds = %51, %50, %37
  call void @llvm.lifetime.end.p0(i64 8, ptr %7) #8
  %70 = load i32, ptr %8, align 4
  switch i32 %70, label %72 [
    i32 0, label %71
    i32 1, label %71
  ]

71:                                               ; preds = %69, %69
  ret void

72:                                               ; preds = %69
  unreachable
}