; Function Attrs: nounwind uwtable
define dso_local void @appendStringLiteralConn(ptr noundef %0, ptr noundef %1, ptr noundef %2) local_unnamed_addr #0 {
  %4 = tail call i64 @strlen(ptr noundef nonnull dereferenceable(1) %1) #12
  %5 = tail call ptr @strchr(ptr noundef nonnull dereferenceable(1) %1, i32 noundef 92) #12
  %.not = icmp eq ptr %5, null
  br i1 %.not, label %20, label %6

6:                                                ; preds = %3
  %7 = tail call i32 @PQserverVersion(ptr noundef %2) #11
  %8 = icmp sgt i32 %7, 80099
  br i1 %8, label %9, label %20

9:                                                ; preds = %6
  %10 = getelementptr inbounds nuw i8, ptr %0, i64 8
  %11 = load i64, ptr %10, align 8
  %.not21 = icmp eq i64 %11, 0
  br i1 %.not21, label %18, label %12

12:                                               ; preds = %9
  %13 = load ptr, ptr %0, align 8
  %14 = getelementptr i8, ptr %13, i64 %11
  %15 = getelementptr i8, ptr %14, i64 -1
  %16 = load i8, ptr %15, align 1
  %.not22 = icmp eq i8 %16, 32
  br i1 %.not22, label %18, label %17

17:                                               ; preds = %12
  tail call void @appendPQExpBufferChar(ptr noundef nonnull %0, i8 noundef signext 32) #11
  br label %18

18:                                               ; preds = %17, %12, %9
  tail call void @appendPQExpBufferChar(ptr noundef nonnull %0, i8 noundef signext 69) #11
  %19 = tail call i32 @PQclientEncoding(ptr noundef %2) #11
  tail call void @appendStringLiteral(ptr noundef nonnull %0, ptr noundef nonnull %1, i32 noundef %19, i1 noundef zeroext false)
  br label %32

20:                                               ; preds = %6, %3
  %21 = shl i64 %4, 1
  %22 = add i64 %21, 2
  %23 = tail call i32 @enlargePQExpBuffer(ptr noundef %0, i64 noundef %22) #11
  %.not20 = icmp eq i32 %23, 0
  br i1 %.not20, label %32, label %24

24:                                               ; preds = %20
  tail call void @appendPQExpBufferChar(ptr noundef %0, i8 noundef signext 39) #11
  %25 = load ptr, ptr %0, align 8
  %26 = getelementptr inbounds nuw i8, ptr %0, i64 8
  %27 = load i64, ptr %26, align 8
  %28 = getelementptr inbounds nuw i8, ptr %25, i64 %27
  %29 = tail call i64 @PQescapeStringConn(ptr noundef %2, ptr noundef %28, ptr noundef nonnull %1, i64 noundef %4, ptr noundef null) #11
  %30 = load i64, ptr %26, align 8
  %31 = add i64 %30, %29
  store i64 %31, ptr %26, align 8
  tail call void @appendPQExpBufferChar(ptr noundef nonnull %0, i8 noundef signext 39) #11
  br label %32

32:                                               ; preds = %20, %24, %18
  ret void
}